target datalayout = "e-m:e-p270:32:32-p271:32:32-p272:64:64-i64:64-i128:128-f80:128-n8:16:32:64-S128"
target triple = "x86_64-pc-linux-gnu"

%struct.List = type { i32, i32, i32, ptr, [0 x %union.ListCell] }
%union.ListCell = type { ptr }
%struct.ForEachState = type { ptr, i32 }
%struct.RangeTblEntry = type { i32, ptr, ptr, i32, i32, i8, i8, i32, i32, ptr, ptr, i8, i32, i32, ptr, ptr, ptr, ptr, ptr, i8, ptr, ptr, ptr, i32, i8, ptr, ptr, ptr, ptr, double, ptr, i8, i8, ptr }

; Function Attrs: nounwind uwtable
define dso_local ptr @range_table_mutator_impl(ptr noundef %0, ptr noundef %1, ptr noundef %2, i32 noundef %3) #0 {
  %5 = alloca ptr, align 8
  %6 = alloca ptr, align 8
  %7 = alloca ptr, align 8
  %8 = alloca i32, align 4
  %9 = alloca ptr, align 8
  %10 = alloca ptr, align 8
  %11 = alloca %struct.ForEachState, align 8
  %12 = alloca ptr, align 8
  %13 = alloca ptr, align 8
  store ptr %0, ptr %5, align 8
  store ptr %1, ptr %6, align 8
  store ptr %2, ptr %7, align 8
  store i32 %3, ptr %8, align 4
  call void @llvm.lifetime.start.p0(i64 8, ptr %9) #7
  store ptr null, ptr %9, align 8
  call void @llvm.lifetime.start.p0(i64 8, ptr %10) #7
  call void @llvm.lifetime.start.p0(i64 16, ptr %11) #7
  %14 = getelementptr inbounds nuw %struct.ForEachState, ptr %11, i32 0, i32 0
  %15 = load ptr, ptr %5, align 8
  store ptr %15, ptr %14, align 8
  %16 = getelementptr inbounds nuw %struct.ForEachState, ptr %11, i32 0, i32 1
  store i32 0, ptr %16, align 8
  %17 = getelementptr i8, ptr %11, i64 12
  call void @llvm.memset.p0.i64(ptr align 4 %17, i8 0, i64 4, i1 false)
  br label %18

18:                                               ; preds = %165, %4
  %19 = getelementptr inbounds nuw %struct.ForEachState, ptr %11, i32 0, i32 0
  %20 = load ptr, ptr %19, align 8
  %21 = icmp ne ptr %20, null
  br i1 %21, label %22, label %39

22:                                               ; preds = %18
  %23 = getelementptr inbounds nuw %struct.ForEachState, ptr %11, i32 0, i32 1
  %24 = load i32, ptr %23, align 8
  %25 = getelementptr inbounds nuw %struct.ForEachState, ptr %11, i32 0, i32 0
  %26 = load ptr, ptr %25, align 8
  %27 = getelementptr inbounds nuw %struct.List, ptr %26, i32 0, i32 1
  %28 = load i32, ptr %27, align 4
  %29 = icmp slt i32 %24, %28
  br i1 %29, label %30, label %39

30:                                               ; preds = %22
  %31 = getelementptr inbounds nuw %struct.ForEachState, ptr %11, i32 0, i32 0
  %32 = load ptr, ptr %31, align 8
  %33 = getelementptr inbounds nuw %struct.List, ptr %32, i32 0, i32 3
  %34 = load ptr, ptr %33, align 8
  %35 = getelementptr inbounds nuw %struct.ForEachState, ptr %11, i32 0, i32 1
  %36 = load i32, ptr %35, align 8
  %37 = sext i32 %36 to i64
  %38 = getelementptr inbounds %union.ListCell, ptr %34, i64 %37
  store ptr %38, ptr %10, align 8
  br label %40

39:                                               ; preds = %22, %18
  store ptr null, ptr %10, align 8
  br label %40

40:                                               ; preds = %39, %30
  %41 = phi i32 [ 1, %30 ], [ 0, %39 ]
  %42 = icmp ne i32 %41, 0
  br i1 %42, label %44, label %43

43:                                               ; preds = %40
  call void @llvm.lifetime.end.p0(i64 16, ptr %11) #7
  br label %169

44:                                               ; preds = %40
  call void @llvm.lifetime.start.p0(i64 8, ptr %12) #7
  %45 = load ptr, ptr %10, align 8
  %46 = load ptr, ptr %45, align 8
  store ptr %46, ptr %12, align 8
  call void @llvm.lifetime.start.p0(i64 8, ptr %13) #7
  %47 = call ptr @palloc(i64 noundef 224)
  store ptr %47, ptr %13, align 8
  %48 = load ptr, ptr %13, align 8
  %49 = load ptr, ptr %12, align 8
  call void @llvm.memcpy.p0.p0.i64(ptr align 8 %48, ptr align 8 %49, i64 224, i1 false)
  %50 = load ptr, ptr %12, align 8
  %51 = getelementptr inbounds nuw %struct.RangeTblEntry, ptr %50, i32 0, i32 3
  %52 = load i32, ptr %51, align 8
  switch i32 %52, label %153 [
    i32 0, label %53
    i32 1, label %62
    i32 2, label %83
    i32 3, label %104
    i32 4, label %113
    i32 5, label %122
    i32 6, label %131
    i32 7, label %131
    i32 8, label %131
    i32 9, label %132
  ]

53:                                               ; preds = %44
  %54 = load ptr, ptr %6, align 8
  %55 = load ptr, ptr %12, align 8
  %56 = getelementptr inbounds nuw %struct.RangeTblEntry, ptr %55, i32 0, i32 9
  %57 = load ptr, ptr %56, align 8
  %58 = load ptr, ptr %7, align 8
  %59 = call ptr %54(ptr noundef %57, ptr noundef %58)
  %60 = load ptr, ptr %13, align 8
  %61 = getelementptr inbounds nuw %struct.RangeTblEntry, ptr %60, i32 0, i32 9
  store ptr %59, ptr %61, align 8
  br label %153

62:                                               ; preds = %44
  %63 = load i32, ptr %8, align 4
  %64 = and i32 %63, 1
  %65 = icmp ne i32 %64, 0
  br i1 %65, label %75, label %66

66:                                               ; preds = %62
  %67 = load ptr, ptr %6, align 8
  %68 = load ptr, ptr %12, align 8
  %69 = getelementptr inbounds nuw %struct.RangeTblEntry, ptr %68, i32 0, i32 10
  %70 = load ptr, ptr %69, align 8
  %71 = load ptr, ptr %7, align 8
  %72 = call ptr %67(ptr noundef %70, ptr noundef %71)
  %73 = load ptr, ptr %13, align 8
  %74 = getelementptr inbounds nuw %struct.RangeTblEntry, ptr %73, i32 0, i32 10
  store ptr %72, ptr %74, align 8
  br label %82

75:                                               ; preds = %62
  %76 = load ptr, ptr %12, align 8
  %77 = getelementptr inbounds nuw %struct.RangeTblEntry, ptr %76, i32 0, i32 10
  %78 = load ptr, ptr %77, align 8
  %79 = call ptr @copyObjectImpl(ptr noundef %78)
  %80 = load ptr, ptr %13, align 8
  %81 = getelementptr inbounds nuw %struct.RangeTblEntry, ptr %80, i32 0, i32 10
  store ptr %79, ptr %81, align 8
  br label %82

82:                                               ; preds = %75, %66
  br label %153

83:                                               ; preds = %44
  %84 = load i32, ptr %8, align 4
  %85 = and i32 %84, 4
  %86 = icmp ne i32 %85, 0
  br i1 %86, label %96, label %87

87:                                               ; preds = %83
  %88 = load ptr, ptr %6, align 8
  %89 = load ptr, ptr %12, align 8
  %90 = getelementptr inbounds nuw %struct.RangeTblEntry, ptr %89, i32 0, i32 14
  %91 = load ptr, ptr %90, align 8
  %92 = load ptr, ptr %7, align 8
  %93 = call ptr %88(ptr noundef %91, ptr noundef %92)
  %94 = load ptr, ptr %13, align 8
  %95 = getelementptr inbounds nuw %struct.RangeTblEntry, ptr %94, i32 0, i32 14
  store ptr %93, ptr %95, align 8
  br label %103

96:                                               ; preds = %83
  %97 = load ptr, ptr %12, align 8
  %98 = getelementptr inbounds nuw %struct.RangeTblEntry, ptr %97, i32 0, i32 14
  %99 = load ptr, ptr %98, align 8
  %100 = call ptr @copyObjectImpl(ptr noundef %99)
  %101 = load ptr, ptr %13, align 8
  %102 = getelementptr inbounds nuw %struct.RangeTblEntry, ptr %101, i32 0, i32 14
  store ptr %100, ptr %102, align 8
  br label %103

103:                                              ; preds = %96, %87
  br label %153

104:                                              ; preds = %44
  %105 = load ptr, ptr %6, align 8
  %106 = load ptr, ptr %12, align 8
  %107 = getelementptr inbounds nuw %struct.RangeTblEntry, ptr %106, i32 0, i32 18
  %108 = load ptr, ptr %107, align 8
  %109 = load ptr, ptr %7, align 8
  %110 = call ptr %105(ptr noundef %108, ptr noundef %109)
  %111 = load ptr, ptr %13, align 8
  %112 = getelementptr inbounds nuw %struct.RangeTblEntry, ptr %111, i32 0, i32 18
  store ptr %110, ptr %112, align 8
  br label %153

113:                                              ; preds = %44
  %114 = load ptr, ptr %6, align 8
  %115 = load ptr, ptr %12, align 8
  %116 = getelementptr inbounds nuw %struct.RangeTblEntry, ptr %115, i32 0, i32 20
  %117 = load ptr, ptr %116, align 8
  %118 = load ptr, ptr %7, align 8
  %119 = call ptr %114(ptr noundef %117, ptr noundef %118)
  %120 = load ptr, ptr %13, align 8
  %121 = getelementptr inbounds nuw %struct.RangeTblEntry, ptr %120, i32 0, i32 20
  store ptr %119, ptr %121, align 8
  br label %153

122:                                              ; preds = %44
  %123 = load ptr, ptr %6, align 8
  %124 = load ptr, ptr %12, align 8
  %125 = getelementptr inbounds nuw %struct.RangeTblEntry, ptr %124, i32 0, i32 21
  %126 = load ptr, ptr %125, align 8
  %127 = load ptr, ptr %7, align 8
  %128 = call ptr %123(ptr noundef %126, ptr noundef %127)
  %129 = load ptr, ptr %13, align 8
  %130 = getelementptr inbounds nuw %struct.RangeTblEntry, ptr %129, i32 0, i32 21
  store ptr %128, ptr %130, align 8
  br label %153

131:                                              ; preds = %44, %44, %44
  br label %153

132:                                              ; preds = %44
  %133 = load i32, ptr %8, align 4
  %134 = and i32 %133, 256
  %135 = icmp ne i32 %134, 0
  br i1 %135, label %145, label %136

136:                                              ; preds = %132
  %137 = load ptr, ptr %6, align 8
  %138 = load ptr, ptr %12, align 8
  %139 = getelementptr inbounds nuw %struct.RangeTblEntry, ptr %138, i32 0, i32 30
  %140 = load ptr, ptr %139, align 8
  %141 = load ptr, ptr %7, align 8
  %142 = call ptr %137(ptr noundef %140, ptr noundef %141)
  %143 = load ptr, ptr %13, align 8
  %144 = getelementptr inbounds nuw %struct.RangeTblEntry, ptr %143, i32 0, i32 30
  store ptr %142, ptr %144, align 8
  br label %152

145:                                              ; preds = %132
  %146 = load ptr, ptr %12, align 8
  %147 = getelementptr inbounds nuw %struct.RangeTblEntry, ptr %146, i32 0, i32 30
  %148 = load ptr, ptr %147, align 8
  %149 = call ptr @copyObjectImpl(ptr noundef %148)
  %150 = load ptr, ptr %13, align 8
  %151 = getelementptr inbounds nuw %struct.RangeTblEntry, ptr %150, i32 0, i32 30
  store ptr %149, ptr %151, align 8
  br label %152

152:                                              ; preds = %145, %136
  br label %153

153:                                              ; preds = %44, %152, %131, %122, %113, %104, %103, %82, %53
  %154 = load ptr, ptr %6, align 8
  %155 = load ptr, ptr %12, align 8
  %156 = getelementptr inbounds nuw %struct.RangeTblEntry, ptr %155, i32 0, i32 33
  %157 = load ptr, ptr %156, align 8
  %158 = load ptr, ptr %7, align 8
  %159 = call ptr %154(ptr noundef %157, ptr noundef %158)
  %160 = load ptr, ptr %13, align 8
  %161 = getelementptr inbounds nuw %struct.RangeTblEntry, ptr %160, i32 0, i32 33
  store ptr %159, ptr %161, align 8
  %162 = load ptr, ptr %9, align 8
  %163 = load ptr, ptr %13, align 8
  %164 = call ptr @lappend(ptr noundef %162, ptr noundef %163)
  store ptr %164, ptr %9, align 8
  call void @llvm.lifetime.end.p0(i64 8, ptr %13) #7
  call void @llvm.lifetime.end.p0(i64 8, ptr %12) #7
  br label %165

165:                                              ; preds = %153
  %166 = getelementptr inbounds nuw %struct.ForEachState, ptr %11, i32 0, i32 1
  %167 = load i32, ptr %166, align 8
  %168 = add i32 %167, 1
  store i32 %168, ptr %166, align 8
  br label %18, !llvm.loop !20

169:                                              ; preds = %43
  %170 = load ptr, ptr %9, align 8
  call void @llvm.lifetime.end.p0(i64 8, ptr %10) #7
  call void @llvm.lifetime.end.p0(i64 8, ptr %9) #7
  ret ptr %170
}