; Function Attrs: nounwind uwtable
define dso_local ptr @range_table_mutator_impl(ptr noundef readonly captures(address_is_null) %0, ptr noundef readonly captures(none) %1, ptr noundef %2, i32 noundef %3) local_unnamed_addr #0 {
  %5 = getelementptr inbounds nuw i8, ptr %0, i64 4
  %.not = icmp eq ptr %0, null
  br i1 %.not, label %._crit_edge, label %.lr.ph

.lr.ph:                                           ; preds = %4
  %6 = getelementptr inbounds nuw i8, ptr %0, i64 16
  %7 = and i32 %3, 256
  %.not55 = icmp eq i32 %7, 0
  %8 = and i32 %3, 4
  %.not56 = icmp eq i32 %8, 0
  %9 = and i32 %3, 1
  %.not57 = icmp eq i32 %9, 0
  %10 = load i32, ptr %5, align 4
  %11 = icmp sgt i32 %10, 0
  br i1 %11, label %.lr.ph67, label %._crit_edge

._crit_edge:                                      ; preds = %62, %.lr.ph, %4
  %.0.lcssa = phi ptr [ null, %4 ], [ null, %.lr.ph ], [ %67, %62 ]
  ret ptr %.0.lcssa

.lr.ph67:                                         ; preds = %.lr.ph, %62
  %.06166 = phi ptr [ %67, %62 ], [ null, %.lr.ph ]
  %indvars.iv65 = phi i64 [ %indvars.iv.next, %62 ], [ 0, %.lr.ph ]
  %12 = load ptr, ptr %6, align 8
  %13 = getelementptr inbounds nuw %union.ListCell, ptr %12, i64 %indvars.iv65
  %14 = load ptr, ptr %13, align 8
  %15 = tail call ptr @palloc(i64 noundef 224) #13
  tail call void @llvm.memcpy.p0.p0.i64(ptr noundef nonnull align 8 dereferenceable(224) %15, ptr noundef nonnull align 8 dereferenceable(224) %14, i64 224, i1 false)
  %16 = getelementptr inbounds nuw i8, ptr %14, i64 24
  %17 = load i32, ptr %16, align 8
  switch i32 %17, label %62 [
    i32 0, label %18
    i32 1, label %23
    i32 2, label %31
    i32 3, label %39
    i32 4, label %44
    i32 5, label %49
    i32 9, label %54
  ]

18:                                               ; preds = %.lr.ph67
  %19 = getelementptr inbounds nuw i8, ptr %14, i64 48
  %20 = load ptr, ptr %19, align 8
  %21 = tail call ptr %1(ptr noundef %20, ptr noundef %2) #13
  %22 = getelementptr inbounds nuw i8, ptr %15, i64 48
  store ptr %21, ptr %22, align 8
  br label %62

23:                                               ; preds = %.lr.ph67
  %24 = getelementptr inbounds nuw i8, ptr %14, i64 56
  %25 = load ptr, ptr %24, align 8
  %26 = getelementptr inbounds nuw i8, ptr %15, i64 56
  br i1 %.not57, label %27, label %29

27:                                               ; preds = %23
  %28 = tail call ptr %1(ptr noundef %25, ptr noundef %2) #13
  store ptr %28, ptr %26, align 8
  br label %62

29:                                               ; preds = %23
  %30 = tail call ptr @copyObjectImpl(ptr noundef %25) #13
  store ptr %30, ptr %26, align 8
  br label %62

31:                                               ; preds = %.lr.ph67
  %32 = getelementptr inbounds nuw i8, ptr %14, i64 80
  %33 = load ptr, ptr %32, align 8
  %34 = getelementptr inbounds nuw i8, ptr %15, i64 80
  br i1 %.not56, label %35, label %37

35:                                               ; preds = %31
  %36 = tail call ptr %1(ptr noundef %33, ptr noundef %2) #13
  store ptr %36, ptr %34, align 8
  br label %62

37:                                               ; preds = %31
  %38 = tail call ptr @copyObjectImpl(ptr noundef %33) #13
  store ptr %38, ptr %34, align 8
  br label %62

39:                                               ; preds = %.lr.ph67
  %40 = getelementptr inbounds nuw i8, ptr %14, i64 112
  %41 = load ptr, ptr %40, align 8
  %42 = tail call ptr %1(ptr noundef %41, ptr noundef %2) #13
  %43 = getelementptr inbounds nuw i8, ptr %15, i64 112
  store ptr %42, ptr %43, align 8
  br label %62

44:                                               ; preds = %.lr.ph67
  %45 = getelementptr inbounds nuw i8, ptr %14, i64 128
  %46 = load ptr, ptr %45, align 8
  %47 = tail call ptr %1(ptr noundef %46, ptr noundef %2) #13
  %48 = getelementptr inbounds nuw i8, ptr %15, i64 128
  store ptr %47, ptr %48, align 8
  br label %62

49:                                               ; preds = %.lr.ph67
  %50 = getelementptr inbounds nuw i8, ptr %14, i64 136
  %51 = load ptr, ptr %50, align 8
  %52 = tail call ptr %1(ptr noundef %51, ptr noundef %2) #13
  %53 = getelementptr inbounds nuw i8, ptr %15, i64 136
  store ptr %52, ptr %53, align 8
  br label %62

54:                                               ; preds = %.lr.ph67
  %55 = getelementptr inbounds nuw i8, ptr %14, i64 200
  %56 = load ptr, ptr %55, align 8
  %57 = getelementptr inbounds nuw i8, ptr %15, i64 200
  br i1 %.not55, label %58, label %60

58:                                               ; preds = %54
  %59 = tail call ptr %1(ptr noundef %56, ptr noundef %2) #13
  store ptr %59, ptr %57, align 8
  br label %62

60:                                               ; preds = %54
  %61 = tail call ptr @copyObjectImpl(ptr noundef %56) #13
  store ptr %61, ptr %57, align 8
  br label %62

62:                                               ; preds = %58, %60, %35, %37, %27, %29, %49, %44, %39, %18, %.lr.ph67
  %63 = getelementptr inbounds nuw i8, ptr %14, i64 216
  %64 = load ptr, ptr %63, align 8
  %65 = tail call ptr %1(ptr noundef %64, ptr noundef %2) #13
  %66 = getelementptr inbounds nuw i8, ptr %15, i64 216
  store ptr %65, ptr %66, align 8
  %67 = tail call ptr @lappend(ptr noundef %.06166, ptr noundef nonnull %15) #13
  %indvars.iv.next = add nuw nsw i64 %indvars.iv65, 1
  %68 = load i32, ptr %5, align 4
  %69 = sext i32 %68 to i64
  %70 = icmp slt i64 %indvars.iv.next, %69
  br i1 %70, label %.lr.ph67, label %._crit_edge
}